target datalayout = "e-m:e-p270:32:32-p271:32:32-p272:64:64-i64:64-i128:128-f80:128-n8:16:32:64-S128"
target triple = "x86_64-pc-linux-gnu"

@.str = private unnamed_addr constant [13 x i8] c"dot11decrypt\00", align 1
@.str.1 = private unnamed_addr constant [26 x i8] c"epan/crypt/dot11decrypt.c\00", align 1
@__func__.Dot11DecryptGetPtkLen = private unnamed_addr constant [22 x i8] c"Dot11DecryptGetPtkLen\00", align 1
@.str.35 = private unnamed_addr constant [16 x i8] c"Invalid PTK len\00", align 1
@__func__.Dot11DecryptGetTkLen = private unnamed_addr constant [21 x i8] c"Dot11DecryptGetTkLen\00", align 1
@.str.48 = private unnamed_addr constant [15 x i8] c"Unknown cipher\00", align 1
@__func__.Dot11DecryptGetKckLen = private unnamed_addr constant [22 x i8] c"Dot11DecryptGetKckLen\00", align 1
@.str.49 = private unnamed_addr constant [12 x i8] c"Unknown akm\00", align 1
@__func__.Dot11DecryptGetKekLen = private unnamed_addr constant [22 x i8] c"Dot11DecryptGetKekLen\00", align 1

; Function Attrs: null_pointer_is_valid sspstrong uwtable
define internal i32 @Dot11DecryptGetTkLen(i32 noundef %0) #0 {
  %2 = alloca i32, align 4
  %3 = alloca i32, align 4
  store i32 %0, ptr %3, align 4
  %4 = load i32, ptr %3, align 4
  switch i32 %4, label %18 [
    i32 1, label %5
    i32 2, label %6
    i32 3, label %7
    i32 4, label %8
    i32 5, label %9
    i32 6, label %10
    i32 7, label %11
    i32 8, label %12
    i32 9, label %13
    i32 10, label %14
    i32 11, label %15
    i32 12, label %16
    i32 13, label %17
  ]

5:                                                ; preds = %1
  store i32 40, ptr %2, align 4
  br label %21

6:                                                ; preds = %1
  store i32 256, ptr %2, align 4
  br label %21

7:                                                ; preds = %1
  store i32 -1, ptr %2, align 4
  br label %21

8:                                                ; preds = %1
  store i32 128, ptr %2, align 4
  br label %21

9:                                                ; preds = %1
  store i32 104, ptr %2, align 4
  br label %21

10:                                               ; preds = %1
  store i32 128, ptr %2, align 4
  br label %21

11:                                               ; preds = %1
  store i32 -1, ptr %2, align 4
  br label %21

12:                                               ; preds = %1
  store i32 128, ptr %2, align 4
  br label %21

13:                                               ; preds = %1
  store i32 256, ptr %2, align 4
  br label %21

14:                                               ; preds = %1
  store i32 256, ptr %2, align 4
  br label %21

15:                                               ; preds = %1
  store i32 128, ptr %2, align 4
  br label %21

16:                                               ; preds = %1
  store i32 256, ptr %2, align 4
  br label %21

17:                                               ; preds = %1
  store i32 256, ptr %2, align 4
  br label %21

18:                                               ; preds = %1
  br label %19

19:                                               ; preds = %18
  call void (ptr, i32, ptr, i64, ptr, ptr, ...) @ws_log_full(ptr noundef @.str, i32 noundef 5, ptr noundef @.str.1, i64 noundef 2362, ptr noundef @__func__.Dot11DecryptGetTkLen, ptr noundef @.str.48)
  br label %20

20:                                               ; preds = %19
  store i32 -1, ptr %2, align 4
  br label %21

21:                                               ; preds = %20, %17, %16, %15, %14, %13, %12, %11, %10, %9, %8, %7, %6, %5
  %22 = load i32, ptr %2, align 4
  ret i32 %22
}

; Function Attrs: null_pointer_is_valid sspstrong uwtable
define internal i32 @Dot11DecryptGetKekLen(i32 noundef %0) #0 {
  %2 = alloca i32, align 4
  %3 = alloca i32, align 4
  store i32 %0, ptr %3, align 4
  %4 = load i32, ptr %3, align 4
  switch i32 %4, label %17 [
    i32 1, label %5
    i32 2, label %6
    i32 3, label %7
    i32 4, label %8
    i32 5, label %9
    i32 6, label %10
    i32 8, label %11
    i32 9, label %12
    i32 11, label %13
    i32 12, label %14
    i32 13, label %15
    i32 18, label %16
  ]

5:                                                ; preds = %1
  store i32 128, ptr %2, align 4
  br label %20

6:                                                ; preds = %1
  store i32 128, ptr %2, align 4
  br label %20

7:                                                ; preds = %1
  store i32 128, ptr %2, align 4
  br label %20

8:                                                ; preds = %1
  store i32 128, ptr %2, align 4
  br label %20

9:                                                ; preds = %1
  store i32 128, ptr %2, align 4
  br label %20

10:                                               ; preds = %1
  store i32 128, ptr %2, align 4
  br label %20

11:                                               ; preds = %1
  store i32 128, ptr %2, align 4
  br label %20

12:                                               ; preds = %1
  store i32 128, ptr %2, align 4
  br label %20

13:                                               ; preds = %1
  store i32 128, ptr %2, align 4
  br label %20

14:                                               ; preds = %1
  store i32 256, ptr %2, align 4
  br label %20

15:                                               ; preds = %1
  store i32 256, ptr %2, align 4
  br label %20

16:                                               ; preds = %1
  store i32 128, ptr %2, align 4
  br label %20

17:                                               ; preds = %1
  br label %18

18:                                               ; preds = %17
  call void (ptr, i32, ptr, i64, ptr, ptr, ...) @ws_log_full(ptr noundef @.str, i32 noundef 5, ptr noundef @.str.1, i64 noundef 2408, ptr noundef @__func__.Dot11DecryptGetKekLen, ptr noundef @.str.49)
  br label %19

19:                                               ; preds = %18
  store i32 -1, ptr %2, align 4
  br label %20

20:                                               ; preds = %19, %16, %15, %14, %13, %12, %11, %10, %9, %8, %7, %6, %5
  %21 = load i32, ptr %2, align 4
  ret i32 %21
}

; Function Attrs: null_pointer_is_valid sspstrong uwtable
define internal i32 @Dot11DecryptGetKckLen(i32 noundef %0) #0 {
  %2 = alloca i32, align 4
  %3 = alloca i32, align 4
  store i32 %0, ptr %3, align 4
  %4 = load i32, ptr %3, align 4
  switch i32 %4, label %17 [
    i32 1, label %5
    i32 2, label %6
    i32 3, label %7
    i32 4, label %8
    i32 5, label %9
    i32 6, label %10
    i32 8, label %11
    i32 9, label %12
    i32 11, label %13
    i32 12, label %14
    i32 13, label %15
    i32 18, label %16
  ]

5:                                                ; preds = %1
  store i32 128, ptr %2, align 4
  br label %20

6:                                                ; preds = %1
  store i32 128, ptr %2, align 4
  br label %20

7:                                                ; preds = %1
  store i32 128, ptr %2, align 4
  br label %20

8:                                                ; preds = %1
  store i32 128, ptr %2, align 4
  br label %20

9:                                                ; preds = %1
  store i32 128, ptr %2, align 4
  br label %20

10:                                               ; preds = %1
  store i32 128, ptr %2, align 4
  br label %20

11:                                               ; preds = %1
  store i32 128, ptr %2, align 4
  br label %20

12:                                               ; preds = %1
  store i32 128, ptr %2, align 4
  br label %20

13:                                               ; preds = %1
  store i32 128, ptr %2, align 4
  br label %20

14:                                               ; preds = %1
  store i32 192, ptr %2, align 4
  br label %20

15:                                               ; preds = %1
  store i32 192, ptr %2, align 4
  br label %20

16:                                               ; preds = %1
  store i32 128, ptr %2, align 4
  br label %20

17:                                               ; preds = %1
  br label %18

18:                                               ; preds = %17
  call void (ptr, i32, ptr, i64, ptr, ptr, ...) @ws_log_full(ptr noundef @.str, i32 noundef 5, ptr noundef @.str.1, i64 noundef 2385, ptr noundef @__func__.Dot11DecryptGetKckLen, ptr noundef @.str.49)
  br label %19

19:                                               ; preds = %18
  store i32 -1, ptr %2, align 4
  br label %20

20:                                               ; preds = %19, %16, %15, %14, %13, %12, %11, %10, %9, %8, %7, %6, %5
  %21 = load i32, ptr %2, align 4
  ret i32 %21
}

; Function Attrs: null_pointer_is_valid sspstrong uwtable
define internal i32 @Dot11DecryptGetPtkLen(i32 noundef %0, i32 noundef %1) #0 {
  %3 = alloca i32, align 4
  %4 = alloca i32, align 4
  %5 = alloca i32, align 4
  %6 = alloca i32, align 4
  %7 = alloca i32, align 4
  %8 = alloca i32, align 4
  %9 = alloca i32, align 4
  store i32 %0, ptr %4, align 4
  store i32 %1, ptr %5, align 4
  call void @llvm.lifetime.start.p0(i64 4, ptr %6) #16
  %10 = load i32, ptr %4, align 4
  %11 = call i32 @Dot11DecryptGetKckLen(i32 noundef %10)
  store i32 %11, ptr %6, align 4
  call void @llvm.lifetime.start.p0(i64 4, ptr %7) #16
  %12 = load i32, ptr %4, align 4
  %13 = call i32 @Dot11DecryptGetKekLen(i32 noundef %12)
  store i32 %13, ptr %7, align 4
  call void @llvm.lifetime.start.p0(i64 4, ptr %8) #16
  %14 = load i32, ptr %5, align 4
  %15 = call i32 @Dot11DecryptGetTkLen(i32 noundef %14)
  store i32 %15, ptr %8, align 4
  %16 = load i32, ptr %6, align 4
  %17 = icmp eq i32 %16, -1
  br i1 %17, label %24, label %18

18:                                               ; preds = %2
  %19 = load i32, ptr %7, align 4
  %20 = icmp eq i32 %19, -1
  br i1 %20, label %24, label %21

21:                                               ; preds = %18
  %22 = load i32, ptr %8, align 4
  %23 = icmp eq i32 %22, -1
  br i1 %23, label %24, label %28

24:                                               ; preds = %21, %18, %2
  br label %25

25:                                               ; preds = %24
  call void (ptr, i32, ptr, i64, ptr, ptr, ...) @ws_log_full(ptr noundef @.str, i32 noundef 5, ptr noundef @.str.1, i64 noundef 2422, ptr noundef @__func__.Dot11DecryptGetPtkLen, ptr noundef @.str.35)
  br label %26

26:                                               ; preds = %25
  br label %27

27:                                               ; preds = %26
  store i32 -1, ptr %3, align 4
  store i32 1, ptr %9, align 4
  br label %34

28:                                               ; preds = %21
  %29 = load i32, ptr %6, align 4
  %30 = load i32, ptr %7, align 4
  %31 = add i32 %29, %30
  %32 = load i32, ptr %8, align 4
  %33 = add i32 %31, %32
  store i32 %33, ptr %3, align 4
  store i32 1, ptr %9, align 4
  br label %34

34:                                               ; preds = %28, %27
  call void @llvm.lifetime.end.p0(i64 4, ptr %8) #16
  call void @llvm.lifetime.end.p0(i64 4, ptr %7) #16
  call void @llvm.lifetime.end.p0(i64 4, ptr %6) #16
  %35 = load i32, ptr %3, align 4
  ret i32 %35
}