; Function Attrs: null_pointer_is_valid sspstrong uwtable
define internal fastcc range(i32 -1, 705) i32 @Dot11DecryptGetPtkLen(i32 noundef %0, i32 noundef %1) unnamed_addr #0 {
  switch i32 %0, label %4 [
    i32 1, label %Dot11DecryptGetKckLen.exit
    i32 2, label %Dot11DecryptGetKckLen.exit
    i32 3, label %Dot11DecryptGetKckLen.exit
    i32 4, label %Dot11DecryptGetKckLen.exit
    i32 5, label %Dot11DecryptGetKckLen.exit
    i32 6, label %Dot11DecryptGetKckLen.exit
    i32 8, label %Dot11DecryptGetKckLen.exit
    i32 9, label %Dot11DecryptGetKckLen.exit
    i32 11, label %Dot11DecryptGetKckLen.exit
    i32 12, label %3
    i32 13, label %3
    i32 18, label %Dot11DecryptGetKckLen.exit
  ]

3:                                                ; preds = %2, %2
  br label %Dot11DecryptGetKckLen.exit

4:                                                ; preds = %2
  tail call void (ptr, i32, ptr, i64, ptr, ptr, ...) @ws_log_full(ptr noundef nonnull @.str, i32 noundef 5, ptr noundef nonnull @.str.1, i64 noundef 2385, ptr noundef nonnull @__func__.Dot11DecryptGetKckLen, ptr noundef nonnull @.str.49)
  br label %Dot11DecryptGetKckLen.exit

Dot11DecryptGetKckLen.exit:                       ; preds = %2, %2, %2, %2, %2, %2, %2, %2, %2, %2, %3, %4
  %5 = phi i1 [ true, %4 ], [ false, %3 ], [ false, %2 ], [ false, %2 ], [ false, %2 ], [ false, %2 ], [ false, %2 ], [ false, %2 ], [ false, %2 ], [ false, %2 ], [ false, %2 ], [ false, %2 ]
  %.0.i = phi i32 [ -1, %4 ], [ 192, %3 ], [ 128, %2 ], [ 128, %2 ], [ 128, %2 ], [ 128, %2 ], [ 128, %2 ], [ 128, %2 ], [ 128, %2 ], [ 128, %2 ], [ 128, %2 ], [ 128, %2 ]
  switch i32 %0, label %7 [
    i32 1, label %Dot11DecryptGetKekLen.exit
    i32 2, label %Dot11DecryptGetKekLen.exit
    i32 3, label %Dot11DecryptGetKekLen.exit
    i32 4, label %Dot11DecryptGetKekLen.exit
    i32 5, label %Dot11DecryptGetKekLen.exit
    i32 6, label %Dot11DecryptGetKekLen.exit
    i32 8, label %Dot11DecryptGetKekLen.exit
    i32 9, label %Dot11DecryptGetKekLen.exit
    i32 11, label %Dot11DecryptGetKekLen.exit
    i32 12, label %6
    i32 13, label %6
    i32 18, label %Dot11DecryptGetKekLen.exit
  ]

6:                                                ; preds = %Dot11DecryptGetKckLen.exit, %Dot11DecryptGetKckLen.exit
  br label %Dot11DecryptGetKekLen.exit

7:                                                ; preds = %Dot11DecryptGetKckLen.exit
  tail call void (ptr, i32, ptr, i64, ptr, ptr, ...) @ws_log_full(ptr noundef nonnull @.str, i32 noundef 5, ptr noundef nonnull @.str.1, i64 noundef 2408, ptr noundef nonnull @__func__.Dot11DecryptGetKekLen, ptr noundef nonnull @.str.49)
  br label %Dot11DecryptGetKekLen.exit

Dot11DecryptGetKekLen.exit:                       ; preds = %Dot11DecryptGetKckLen.exit, %Dot11DecryptGetKckLen.exit, %Dot11DecryptGetKckLen.exit, %Dot11DecryptGetKckLen.exit, %Dot11DecryptGetKckLen.exit, %Dot11DecryptGetKckLen.exit, %Dot11DecryptGetKckLen.exit, %Dot11DecryptGetKckLen.exit, %Dot11DecryptGetKckLen.exit, %Dot11DecryptGetKckLen.exit, %6, %7
  %8 = phi i1 [ true, %7 ], [ false, %6 ], [ false, %Dot11DecryptGetKckLen.exit ], [ false, %Dot11DecryptGetKckLen.exit ], [ false, %Dot11DecryptGetKckLen.exit ], [ false, %Dot11DecryptGetKckLen.exit ], [ false, %Dot11DecryptGetKckLen.exit ], [ false, %Dot11DecryptGetKckLen.exit ], [ false, %Dot11DecryptGetKckLen.exit ], [ false, %Dot11DecryptGetKckLen.exit ], [ false, %Dot11DecryptGetKckLen.exit ], [ false, %Dot11DecryptGetKckLen.exit ]
  %.0.i16 = phi i32 [ -1, %7 ], [ 256, %6 ], [ 128, %Dot11DecryptGetKckLen.exit ], [ 128, %Dot11DecryptGetKckLen.exit ], [ 128, %Dot11DecryptGetKckLen.exit ], [ 128, %Dot11DecryptGetKckLen.exit ], [ 128, %Dot11DecryptGetKckLen.exit ], [ 128, %Dot11DecryptGetKckLen.exit ], [ 128, %Dot11DecryptGetKckLen.exit ], [ 128, %Dot11DecryptGetKckLen.exit ], [ 128, %Dot11DecryptGetKckLen.exit ], [ 128, %Dot11DecryptGetKckLen.exit ]
  switch i32 %1, label %12 [
    i32 1, label %Dot11DecryptGetTkLen.exit
    i32 2, label %9
    i32 3, label %Dot11DecryptGetTkLen.exit.thread
    i32 4, label %10
    i32 5, label %11
    i32 6, label %10
    i32 7, label %Dot11DecryptGetTkLen.exit.thread
    i32 8, label %10
    i32 9, label %9
    i32 10, label %9
    i32 11, label %10
    i32 12, label %9
    i32 13, label %9
  ]

9:                                                ; preds = %Dot11DecryptGetKekLen.exit, %Dot11DecryptGetKekLen.exit, %Dot11DecryptGetKekLen.exit, %Dot11DecryptGetKekLen.exit, %Dot11DecryptGetKekLen.exit
  br label %Dot11DecryptGetTkLen.exit

10:                                               ; preds = %Dot11DecryptGetKekLen.exit, %Dot11DecryptGetKekLen.exit, %Dot11DecryptGetKekLen.exit, %Dot11DecryptGetKekLen.exit
  br label %Dot11DecryptGetTkLen.exit

11:                                               ; preds = %Dot11DecryptGetKekLen.exit
  br label %Dot11DecryptGetTkLen.exit

12:                                               ; preds = %Dot11DecryptGetKekLen.exit
  tail call void (ptr, i32, ptr, i64, ptr, ptr, ...) @ws_log_full(ptr noundef nonnull @.str, i32 noundef 5, ptr noundef nonnull @.str.1, i64 noundef 2362, ptr noundef nonnull @__func__.Dot11DecryptGetTkLen, ptr noundef nonnull @.str.48)
  br label %Dot11DecryptGetTkLen.exit.thread

Dot11DecryptGetTkLen.exit:                        ; preds = %Dot11DecryptGetKekLen.exit, %9, %10, %11
  %.0.i17 = phi i32 [ 104, %11 ], [ 128, %10 ], [ 256, %9 ], [ 40, %Dot11DecryptGetKekLen.exit ]
  %or.cond = or i1 %5, %8
  br i1 %or.cond, label %Dot11DecryptGetTkLen.exit.thread, label %13

Dot11DecryptGetTkLen.exit.thread:                 ; preds = %Dot11DecryptGetKekLen.exit, %Dot11DecryptGetKekLen.exit, %12, %Dot11DecryptGetTkLen.exit
  tail call void (ptr, i32, ptr, i64, ptr, ptr, ...) @ws_log_full(ptr noundef nonnull @.str, i32 noundef 5, ptr noundef nonnull @.str.1, i64 noundef 2422, ptr noundef nonnull @__func__.Dot11DecryptGetPtkLen, ptr noundef nonnull @.str.35)
  br label %16

13:                                               ; preds = %Dot11DecryptGetTkLen.exit
  %14 = add nuw nsw i32 %.0.i16, %.0.i
  %15 = add nuw nsw i32 %14, %.0.i17
  br label %16

16:                                               ; preds = %13, %Dot11DecryptGetTkLen.exit.thread
  %.0 = phi i32 [ -1, %Dot11DecryptGetTkLen.exit.thread ], [ %15, %13 ]
  ret i32 %.0
}